; Function Attrs: mustprogress uwtable
define internal void @_ZN9grpc_core12_GLOBAL__N_121HttpConnectHandshaker19OnReadDoneSchedulerEPvN4absl12lts_202407226StatusE(ptr noundef %0, ptr noundef captures(none) %1) #3 align 2 personality ptr @__gxx_personality_v0 {
  %3 = alloca %"class.absl::lts_20240722::AnyInvocable.103", align 16
  %4 = getelementptr inbounds nuw i8, ptr %0, i64 24
  %5 = load ptr, ptr %4, align 8, !tbaa !68
  %6 = getelementptr inbounds nuw i8, ptr %5, i64 256
  %7 = load ptr, ptr %6, align 8, !tbaa !112
  %8 = load i64, ptr %1, align 8, !tbaa !48
  store i64 55, ptr %1, align 8, !tbaa !48
  store ptr %0, ptr %3, align 16, !tbaa !162
  %9 = getelementptr inbounds nuw i8, ptr %3, i64 8
  store i64 %8, ptr %9, align 8, !tbaa !48
  %10 = getelementptr inbounds nuw i8, ptr %3, i64 24
  store ptr @"_ZN4absl12lts_2024072222internal_any_invocable12LocalInvokerILb0EvRZN9grpc_core12_GLOBAL__N_121HttpConnectHandshaker19OnReadDoneSchedulerEPvNS0_6StatusEE3$_0JEEET0_PNS1_15TypeErasedStateEDpNS1_18ForwardedParameterIT2_E4typeE", ptr %10, align 8, !tbaa !130
  %11 = getelementptr inbounds nuw i8, ptr %3, i64 16
  store ptr @"_ZN4absl12lts_2024072222internal_any_invocable22LocalManagerNontrivialIZN9grpc_core12_GLOBAL__N_121HttpConnectHandshaker19OnReadDoneSchedulerEPvNS0_6StatusEE3$_0EEvNS1_14FunctionToCallEPNS1_15TypeErasedStateESB_", ptr %11, align 16, !tbaa !132
  %12 = load ptr, ptr %7, align 8, !tbaa !6
  %13 = getelementptr inbounds nuw i8, ptr %12, i64 72
  %14 = load ptr, ptr %13, align 8
  invoke void %14(ptr noundef nonnull align 8 dereferenceable(24) %7, ptr noundef nonnull %3)
          to label %"_ZZN9grpc_core12_GLOBAL__N_121HttpConnectHandshaker19OnReadDoneSchedulerEPvN4absl12lts_202407226StatusEEN3$_0D2Ev.exit" unwind label %16

"_ZZN9grpc_core12_GLOBAL__N_121HttpConnectHandshaker19OnReadDoneSchedulerEPvN4absl12lts_202407226StatusEEN3$_0D2Ev.exit": ; preds = %2
  %15 = load ptr, ptr %11, align 16, !tbaa !132
  call void %15(i1 noundef zeroext true, ptr noundef nonnull align 16 dereferenceable(32) %3, ptr noundef nonnull align 16 dereferenceable(32) %3) #30
  ret void

16:                                               ; preds = %2
  %17 = landingpad { ptr, i32 }
          cleanup
  %18 = load ptr, ptr %11, align 16, !tbaa !132
  call void %18(i1 noundef zeroext true, ptr noundef nonnull align 16 dereferenceable(32) %3, ptr noundef nonnull align 16 dereferenceable(32) %3) #30
  call fastcc void @"_ZZN9grpc_core12_GLOBAL__N_121HttpConnectHandshaker19OnReadDoneSchedulerEPvN4absl12lts_202407226StatusEEN3$_0D2Ev"(i64 55) #30
  resume { ptr, i32 } %17
}